target datalayout = "e-m:e-p270:32:32-p271:32:32-p272:64:64-i64:64-i128:128-f80:128-n8:16:32:64-S128"
target triple = "x86_64-pc-linux-gnu"

%"class.std::__cxx11::basic_string" = type { %"struct.std::__cxx11::basic_string<char>::_Alloc_hider", i64, %union.anon }
%"struct.std::__cxx11::basic_string<char>::_Alloc_hider" = type { ptr }
%union.anon = type { i64, [8 x i8] }
%"struct.Luau::PendingType" = type <{ %"struct.Luau::Type", i8, [7 x i8] }>
%"struct.Luau::Type" = type { %"class.Luau::Variant", i8, [7 x i8], %"class.std::optional", ptr }
%"class.Luau::Variant" = type { i32, [4 x i8], [336 x i8] }
%"class.std::optional" = type { %"struct.std::_Optional_base" }
%"struct.std::_Optional_base" = type { %"struct.std::_Optional_payload" }
%"struct.std::_Optional_payload" = type { %"struct.std::_Optional_payload.base", [7 x i8] }
%"struct.std::_Optional_payload.base" = type { %"struct.std::_Optional_payload_base.base" }
%"struct.std::_Optional_payload_base.base" = type <{ %"union.std::_Optional_payload_base<std::__cxx11::basic_string<char>>::_Storage", i8 }>
%"union.std::_Optional_payload_base<std::__cxx11::basic_string<char>>::_Storage" = type { %"class.std::__cxx11::basic_string" }
%"class.std::vector" = type { %"struct.std::_Vector_base" }
%"struct.std::_Vector_base" = type { %"struct.std::_Vector_base<std::__cxx11::basic_string<char>, std::allocator<std::__cxx11::basic_string<char>>>::_Vector_impl" }
%"struct.std::_Vector_base<std::__cxx11::basic_string<char>, std::allocator<std::__cxx11::basic_string<char>>>::_Vector_impl" = type { %"struct.std::_Vector_base<std::__cxx11::basic_string<char>, std::allocator<std::__cxx11::basic_string<char>>>::_Vector_impl_data" }
%"struct.std::_Vector_base<std::__cxx11::basic_string<char>, std::allocator<std::__cxx11::basic_string<char>>>::_Vector_impl_data" = type { ptr, ptr, ptr }
%"class.std::vector.62" = type { %"struct.std::_Vector_base.63" }
%"struct.std::_Vector_base.63" = type { %"struct.std::_Vector_base<const Luau::Type *, std::allocator<const Luau::Type *>>::_Vector_impl" }
%"struct.std::_Vector_base<const Luau::Type *, std::allocator<const Luau::Type *>>::_Vector_impl" = type { %"struct.std::_Vector_base<const Luau::Type *, std::allocator<const Luau::Type *>>::_Vector_impl_data" }
%"struct.std::_Vector_base<const Luau::Type *, std::allocator<const Luau::Type *>>::_Vector_impl_data" = type { ptr, ptr, ptr }
%"struct.Luau::TypeLevel" = type { i32, i32 }
%"class.std::optional.69" = type { %"struct.std::_Optional_base.70" }
%"struct.std::_Optional_base.70" = type { %"struct.std::_Optional_payload.72" }
%"struct.std::_Optional_payload.72" = type { %"struct.std::_Optional_payload_base.base.74", [7 x i8] }
%"struct.std::_Optional_payload_base.base.74" = type <{ %"union.std::_Optional_payload_base<const Luau::Type *>::_Storage", i8 }>
%"union.std::_Optional_payload_base<const Luau::Type *>::_Storage" = type { ptr }
%"struct.Luau::TableType" = type { %"class.std::map", %"class.std::optional.81", i32, %"struct.Luau::TypeLevel", ptr, %"class.std::optional", %"class.std::optional", %"class.std::vector.62", %"class.std::vector.89", %"class.std::__cxx11::basic_string", %"struct.Luau::Location", %"class.std::optional.69", %"class.std::vector", %"class.std::optional.69", i64 }
%"class.std::map" = type { %"class.std::_Rb_tree" }
%"class.std::_Rb_tree" = type { %"struct.std::_Rb_tree<std::__cxx11::basic_string<char>, std::pair<const std::__cxx11::basic_string<char>, Luau::Property>, std::_Select1st<std::pair<const std::__cxx11::basic_string<char>, Luau::Property>>, std::less<std::__cxx11::basic_string<char>>>::_Rb_tree_impl" }
%"struct.std::_Rb_tree<std::__cxx11::basic_string<char>, std::pair<const std::__cxx11::basic_string<char>, Luau::Property>, std::_Select1st<std::pair<const std::__cxx11::basic_string<char>, Luau::Property>>, std::less<std::__cxx11::basic_string<char>>>::_Rb_tree_impl" = type { %"struct.std::_Rb_tree_key_compare", %"struct.std::_Rb_tree_header" }
%"struct.std::_Rb_tree_key_compare" = type { %"struct.std::less" }
%"struct.std::less" = type { i8 }
%"struct.std::_Rb_tree_header" = type { %"struct.std::_Rb_tree_node_base", i64 }
%"struct.std::_Rb_tree_node_base" = type { i32, ptr, ptr, ptr }
%"class.std::optional.81" = type { %"struct.std::_Optional_base.82" }
%"struct.std::_Optional_base.82" = type { %"struct.std::_Optional_payload.84" }
%"struct.std::_Optional_payload.84" = type { %"struct.std::_Optional_payload_base.base.86", [7 x i8] }
%"struct.std::_Optional_payload_base.base.86" = type <{ %"union.std::_Optional_payload_base<Luau::TableIndexer>::_Storage", i8 }>
%"union.std::_Optional_payload_base<Luau::TableIndexer>::_Storage" = type { %"struct.Luau::TableIndexer" }
%"struct.Luau::TableIndexer" = type { ptr, ptr }
%"class.std::vector.89" = type { %"struct.std::_Vector_base.90" }
%"struct.std::_Vector_base.90" = type { %"struct.std::_Vector_base<const Luau::TypePackVar *, std::allocator<const Luau::TypePackVar *>>::_Vector_impl" }
%"struct.std::_Vector_base<const Luau::TypePackVar *, std::allocator<const Luau::TypePackVar *>>::_Vector_impl" = type { %"struct.std::_Vector_base<const Luau::TypePackVar *, std::allocator<const Luau::TypePackVar *>>::_Vector_impl_data" }
%"struct.std::_Vector_base<const Luau::TypePackVar *, std::allocator<const Luau::TypePackVar *>>::_Vector_impl_data" = type { ptr, ptr, ptr }
%"struct.Luau::Location" = type { %"struct.Luau::Position", %"struct.Luau::Position" }
%"struct.Luau::Position" = type { i32, i32 }

; Function Attrs: mustprogress nounwind uwtable
define linkonce_odr dso_local noundef ptr @_ZN4Luau7VariantIJNS_9Unifiable5BoundIPKNS_4TypeEEENS1_5ErrorENS_8FreeTypeENS_11GenericTypeENS_13PrimitiveTypeENS_13SingletonTypeENS_11BlockedTypeENS_20PendingExpansionTypeENS_12FunctionTypeENS_9TableTypeENS_13MetatableTypeENS_9ClassTypeENS_7AnyTypeENS_9UnionTypeENS_16IntersectionTypeENS_8LazyTypeENS_11UnknownTypeENS_9NeverTypeENS_12NegationTypeENS_22TypeFamilyInstanceTypeEEE6get_ifISF_EEPT_v(ptr noundef nonnull align 8 dereferenceable(344) %0) #5 comdat align 2 {
  %2 = alloca ptr, align 8
  %3 = alloca i32, align 4
  store ptr %0, ptr %2, align 8
  %4 = load ptr, ptr %2, align 8
  store i32 9, ptr %3, align 4
  %5 = getelementptr inbounds %"class.Luau::Variant", ptr %4, i32 0, i32 0
  %6 = load i32, ptr %5, align 8
  %7 = icmp eq i32 9, %6
  br i1 %7, label %8, label %10

8:                                                ; preds = %1
  %9 = getelementptr inbounds %"class.Luau::Variant", ptr %4, i32 0, i32 2
  br label %11

10:                                               ; preds = %1
  br label %11

11:                                               ; preds = %10, %8
  %12 = phi ptr [ %9, %8 ], [ null, %10 ]
  ret ptr %12
}

; Function Attrs: mustprogress uwtable
define linkonce_odr dso_local noundef ptr @_ZN4Luau6get_ifINS_9TableTypeEJNS_9Unifiable5BoundIPKNS_4TypeEEENS2_5ErrorENS_8FreeTypeENS_11GenericTypeENS_13PrimitiveTypeENS_13SingletonTypeENS_11BlockedTypeENS_20PendingExpansionTypeENS_12FunctionTypeES1_NS_13MetatableTypeENS_9ClassTypeENS_7AnyTypeENS_9UnionTypeENS_16IntersectionTypeENS_8LazyTypeENS_11UnknownTypeENS_9NeverTypeENS_12NegationTypeENS_22TypeFamilyInstanceTypeEEEEPT_PNS_7VariantIJDpT0_EEE(ptr noundef %0) #2 comdat {
  %2 = alloca ptr, align 8
  store ptr %0, ptr %2, align 8
  %3 = load ptr, ptr %2, align 8
  %4 = icmp ne ptr %3, null
  br i1 %4, label %5, label %8

5:                                                ; preds = %1
  %6 = load ptr, ptr %2, align 8
  %7 = call noundef ptr @_ZN4Luau7VariantIJNS_9Unifiable5BoundIPKNS_4TypeEEENS1_5ErrorENS_8FreeTypeENS_11GenericTypeENS_13PrimitiveTypeENS_13SingletonTypeENS_11BlockedTypeENS_20PendingExpansionTypeENS_12FunctionTypeENS_9TableTypeENS_13MetatableTypeENS_9ClassTypeENS_7AnyTypeENS_9UnionTypeENS_16IntersectionTypeENS_8LazyTypeENS_11UnknownTypeENS_9NeverTypeENS_12NegationTypeENS_22TypeFamilyInstanceTypeEEE6get_ifISF_EEPT_v(ptr noundef nonnull align 8 dereferenceable(344) %6)
  br label %9

8:                                                ; preds = %1
  br label %9

9:                                                ; preds = %8, %5
  %10 = phi ptr [ %7, %5 ], [ null, %8 ]
  ret ptr %10
}

; Function Attrs: mustprogress uwtable
define linkonce_odr dso_local noundef ptr @_ZN4Luau10getMutableINS_9TableTypeEEEPT_PKNS_4TypeE(ptr noundef %0) #2 comdat {
  %2 = alloca ptr, align 8
  store ptr %0, ptr %2, align 8
  %3 = load ptr, ptr %2, align 8
  %4 = call noundef ptr @_ZN4Luau9asMutableEPKNS_4TypeE(ptr noundef %3)
  %5 = getelementptr inbounds %"struct.Luau::Type", ptr %4, i32 0, i32 0
  %6 = call noundef ptr @_ZN4Luau6get_ifINS_9TableTypeEJNS_9Unifiable5BoundIPKNS_4TypeEEENS2_5ErrorENS_8FreeTypeENS_11GenericTypeENS_13PrimitiveTypeENS_13SingletonTypeENS_11BlockedTypeENS_20PendingExpansionTypeENS_12FunctionTypeES1_NS_13MetatableTypeENS_9ClassTypeENS_7AnyTypeENS_9UnionTypeENS_16IntersectionTypeENS_8LazyTypeENS_11UnknownTypeENS_9NeverTypeENS_12NegationTypeENS_22TypeFamilyInstanceTypeEEEEPT_PNS_7VariantIJDpT0_EEE(ptr noundef %5)
  ret ptr %6
}

; Function Attrs: mustprogress uwtable
define linkonce_odr dso_local noundef ptr @_ZN4Luau10getMutableINS_9TableTypeEEEPT_PNS_11PendingTypeE(ptr noundef %0) #2 comdat {
  %2 = alloca ptr, align 8
  store ptr %0, ptr %2, align 8
  %3 = load ptr, ptr %2, align 8
  %4 = getelementptr inbounds %"struct.Luau::PendingType", ptr %3, i32 0, i32 0
  %5 = call noundef ptr @_ZN4Luau10getMutableINS_9TableTypeEEEPT_PKNS_4TypeE(ptr noundef %4)
  ret ptr %5
}

; Function Attrs: mustprogress uwtable
define dso_local noundef ptr @_ZN4Luau6TxnLog13changeIndexerEPKNS_4TypeESt8optionalINS_12TableIndexerEE(ptr noundef nonnull align 8 dereferenceable(128) %0, ptr noundef %1, ptr noundef byval(%"class.std::optional.81") align 8 %2) #2 align 2 {
  %4 = alloca ptr, align 8
  %5 = alloca ptr, align 8
  %6 = alloca ptr, align 8
  %7 = alloca ptr, align 8
  store ptr %0, ptr %4, align 8
  store ptr %1, ptr %5, align 8
  %8 = load ptr, ptr %4, align 8
  %9 = load ptr, ptr %5, align 8
  %10 = call noundef ptr @_ZN4Luau6TxnLog5queueEPKNS_4TypeE(ptr noundef nonnull align 8 dereferenceable(128) %8, ptr noundef %9)
  store ptr %10, ptr %6, align 8
  %11 = load ptr, ptr %6, align 8
  %12 = call noundef ptr @_ZN4Luau10getMutableINS_9TableTypeEEEPT_PNS_11PendingTypeE(ptr noundef %11)
  store ptr %12, ptr %7, align 8
  %13 = load ptr, ptr %7, align 8
  %14 = icmp ne ptr %13, null
  br i1 %14, label %15, label %18

15:                                               ; preds = %3
  %16 = load ptr, ptr %7, align 8
  %17 = getelementptr inbounds %"struct.Luau::TableType", ptr %16, i32 0, i32 1
  call void @llvm.memcpy.p0.p0.i64(ptr align 8 %17, ptr align 8 %2, i64 24, i1 false)
  br label %18

18:                                               ; preds = %15, %3
  %19 = load ptr, ptr %6, align 8
  ret ptr %19
}