; Function Attrs: mustprogress uwtable
define dso_local noundef ptr @_ZN4Luau6TxnLog13changeIndexerEPKNS_4TypeESt8optionalINS_12TableIndexerEE(ptr noundef nonnull align 8 dereferenceable(128) %0, ptr noundef %1, ptr nocapture noundef readonly byval(%"class.std::optional.81") align 8 %2) local_unnamed_addr #3 align 2 {
  %4 = tail call noundef ptr @_ZN4Luau6TxnLog5queueEPKNS_4TypeE(ptr noundef nonnull align 8 dereferenceable(128) %0, ptr noundef %1)
  %5 = tail call noundef ptr @_ZN4Luau9asMutableEPKNS_4TypeE(ptr noundef %4)
  %.not.i.i.i = icmp eq ptr %5, null
  br i1 %.not.i.i.i, label %_ZN4Luau10getMutableINS_9TableTypeEEEPT_PNS_11PendingTypeE.exit.thread, label %6

6:                                                ; preds = %3
  %7 = load i32, ptr %5, align 8
  %8 = icmp eq i32 %7, 9
  br i1 %8, label %_ZN4Luau10getMutableINS_9TableTypeEEEPT_PNS_11PendingTypeE.exit, label %_ZN4Luau10getMutableINS_9TableTypeEEEPT_PNS_11PendingTypeE.exit.thread

_ZN4Luau10getMutableINS_9TableTypeEEEPT_PNS_11PendingTypeE.exit: ; preds = %6
  %9 = getelementptr inbounds i8, ptr %5, i64 56
  call void @llvm.memcpy.p0.p0.i64(ptr noundef nonnull align 8 dereferenceable(24) %9, ptr noundef nonnull align 8 dereferenceable(24) %2, i64 24, i1 false)
  br label %_ZN4Luau10getMutableINS_9TableTypeEEEPT_PNS_11PendingTypeE.exit.thread

_ZN4Luau10getMutableINS_9TableTypeEEEPT_PNS_11PendingTypeE.exit.thread: ; preds = %3, %6, %_ZN4Luau10getMutableINS_9TableTypeEEEPT_PNS_11PendingTypeE.exit
  ret ptr %4
}